Certificate:
    Data:
        Version: Unknown (3)
        Serial Number: 1 (0x1)
    Signature Algorithm: sha1WithRSAEncryption
        Issuer: CN=www.example.com, C=BE, O=Gremwell bvba
        Validity
            Not Before: Jan  1 00:00:00 1970 GMT
            Not After : Jan 19 03:14:07 2038 GMT
        Subject: CN=www.example.com, C=BE, O=Gremwell bvba
        Subject Public Key Info:
            Public Key Algorithm: rsaEncryption
                Public-Key: (1024 bit)
                Modulus:
                    00:af:df:70:b5:d8:46:20:a9:1a:68:8e:36:78:6e:
                    ba:f8:bd:6e:1c:d7:96:a6:ba:ed:e9:ed:0f:7f:d6:
                    a5:ab:b4:b8:17:79:ea:39:6e:5a:5b:e5:6c:60:5b:
                    50:5e:b5:e6:db:44:97:ef:f1:be:9d:d5:95:56:28:
                    67:2f:78:c6:c2:96:9c:32:38:02:a2:30:53:72:a1:
                    77:d0:47:df:e8:2a:4b:5e:97:ec:b1:13:ec:01:0b:
                    cd:52:1b:3a:56:86:e0:15:9c:ea:75:fc:94:a2:31:
                    76:a3:c9:51:5b:39:13:8b:9f:c2:75:bc:02:92:b3:
                    33:da:f1:16:95:1a:fa:cc:ef
                Exponent: 65537 (0x10001)
    Signature Algorithm: sha1WithRSAEncryption
         25:28:97:bc:13:6f:49:04:dd:97:f2:ae:fa:a3:13:f2:2e:fe:
         d2:d9:db:d6:fd:f0:8f:52:64:c3:4e:14:2f:70:6a:ec:4c:59:
         72:86:2b:57:9e:57:d0:3b:f0:c3:e3:1b:51:e2:47:23:f9:2f:
         a8:4e:8d:dd:a8:69:16:4f:8c:1b:96:ad:f8:60:70:63:61:44:
         78:25:14:f0:07:62:6c:8b:cc:98:14:a8:8b:4a:b9:38:73:79:
         f0:a9:89:3d:40:1d:d5:d9:82:fa:f5:b7:4f:33:c9:27:6f:3f:
         9e:29:94:de:49:35:8a:7a:2c:1c:55:21:5a:96:df:c4:97:5e:
         8f:f9
-----BEGIN CERTIFICATE-----
MIIB8jCCAVugAwIBAwIBATANBgkqhkiG9w0BAQUFADA/MRgwFgYDVQQDDA93d3cu
ZXhhbXBsZS5jb20xCzAJBgNVBAYTAkJFMRYwFAYDVQQKDA1HcmVtd2VsbCBidmJh
MB4XDTcwMDEwMTAwMDAwMFoXDTM4MDExOTAzMTQwN1owPzEYMBYGA1UEAwwPd3d3
LmV4YW1wbGUuY29tMQswCQYDVQQGEwJCRTEWMBQGA1UECgwNR3JlbXdlbGwgYnZi
YTCBnzANBgkqhkiG9w0BAQEFAAOBjQAwgYkCgYEAr99wtdhGIKkaaI42eG66+L1u
HNeWprrt6e0Pf9alq7S4F3nqOW5aW+VsYFtQXrXm20SX7/G+ndWVVihnL3jGwpac
MjgCojBTcqF30Eff6CpLXpfssRPsAQvNUhs6VobgFZzqdfyUojF2o8lRWzkTi5/C
dbwCkrMz2vEWlRr6zO8CAwEAATANBgkqhkiG9w0BAQUFAAOBgQAlKJe8E29JBN2X
8q76oxPyLv7S2dvW/fCPUmTDThQvcGrsTFlyhitXnlfQO/DD4xtR4kcj+S+oTo3d
qGkWT4wblq34YHBjYUR4JRTwB2Jsi8yYFKiLSrk4c3nwqYk9QB3V2YL69bdPM8kn
bz+eKZTeSTWKeiwcVSFalt/El16P+Q==
-----END CERTIFICATE-----
